target datalayout = "e-m:e-p270:32:32-p271:32:32-p272:64:64-i64:64-i128:128-f80:128-n8:16:32:64-S128"
target triple = "x86_64-pc-linux-gnu"

%struct._GList = type { ptr, ptr, ptr }
%struct._protocol = type { ptr, ptr, ptr, ptr, i32, i8, i8, i8, i32, ptr }

@protocols = internal global ptr null, align 8
@.str.130 = private unnamed_addr constant [19 x i8] c"%s\09%s\09%s\09%c\09%c\09%c\0A\00", align 1

; Function Attrs: nounwind null_pointer_is_valid sspstrong uwtable
define zeroext i1 @proto_is_pino(ptr noundef %0) #3 {
  %2 = alloca ptr, align 8
  store ptr %0, ptr %2, align 8
  %3 = load ptr, ptr %2, align 8
  %4 = getelementptr inbounds nuw %struct._protocol, ptr %3, i32 0, i32 8
  %5 = load i32, ptr %4, align 8
  %6 = icmp ne i32 %5, -1
  ret i1 %6
}

; Function Attrs: nounwind null_pointer_is_valid sspstrong uwtable
define i32 @proto_get_next_protocol(ptr noundef %0) #3 {
  %2 = alloca i32, align 4
  %3 = alloca ptr, align 8
  %4 = alloca ptr, align 8
  %5 = alloca ptr, align 8
  %6 = alloca i32, align 4
  store ptr %0, ptr %3, align 8
  call void @llvm.lifetime.start.p0(i64 8, ptr %4) #24
  %7 = load ptr, ptr %3, align 8
  %8 = load ptr, ptr %7, align 8
  store ptr %8, ptr %4, align 8
  call void @llvm.lifetime.start.p0(i64 8, ptr %5) #24
  %9 = load ptr, ptr %4, align 8
  %10 = icmp ne ptr %9, null
  br i1 %10, label %11, label %15

11:                                               ; preds = %1
  %12 = load ptr, ptr %4, align 8
  %13 = getelementptr inbounds nuw %struct._GList, ptr %12, i32 0, i32 1
  %14 = load ptr, ptr %13, align 8
  br label %16

15:                                               ; preds = %1
  br label %16

16:                                               ; preds = %15, %11
  %17 = phi ptr [ %14, %11 ], [ null, %15 ]
  store ptr %17, ptr %4, align 8
  %18 = load ptr, ptr %4, align 8
  %19 = icmp eq ptr %18, null
  br i1 %19, label %20, label %21

20:                                               ; preds = %16
  store i32 -1, ptr %2, align 4
  store i32 1, ptr %6, align 4
  br label %30

21:                                               ; preds = %16
  %22 = load ptr, ptr %4, align 8
  %23 = load ptr, ptr %3, align 8
  store ptr %22, ptr %23, align 8
  %24 = load ptr, ptr %4, align 8
  %25 = getelementptr inbounds nuw %struct._GList, ptr %24, i32 0, i32 0
  %26 = load ptr, ptr %25, align 8
  store ptr %26, ptr %5, align 8
  %27 = load ptr, ptr %5, align 8
  %28 = getelementptr inbounds nuw %struct._protocol, ptr %27, i32 0, i32 4
  %29 = load i32, ptr %28, align 8
  store i32 %29, ptr %2, align 4
  store i32 1, ptr %6, align 4
  br label %30

30:                                               ; preds = %21, %20
  call void @llvm.lifetime.end.p0(i64 8, ptr %5) #24
  call void @llvm.lifetime.end.p0(i64 8, ptr %4) #24
  %31 = load i32, ptr %2, align 4
  ret i32 %31
}

; Function Attrs: null_pointer_is_valid sspstrong uwtable
define zeroext i1 @proto_can_toggle_protocol(i32 noundef %0) #0 {
  %2 = alloca i1, align 1
  %3 = alloca i32, align 4
  %4 = alloca ptr, align 8
  %5 = alloca i32, align 4
  store i32 %0, ptr %3, align 4
  call void @llvm.lifetime.start.p0(i64 8, ptr %4) #24
  %6 = load i32, ptr %3, align 4
  %7 = call ptr @find_protocol_by_id(i32 noundef %6)
  store ptr %7, ptr %4, align 8
  %8 = load ptr, ptr %4, align 8
  %9 = call zeroext i1 @proto_is_pino(ptr noundef %8)
  br i1 %9, label %10, label %15

10:                                               ; preds = %1
  %11 = load ptr, ptr %4, align 8
  %12 = getelementptr inbounds nuw %struct._protocol, ptr %11, i32 0, i32 8
  %13 = load i32, ptr %12, align 8
  %14 = call zeroext i1 @proto_can_toggle_protocol(i32 noundef %13)
  store i1 %14, ptr %2, align 1
  store i32 1, ptr %5, align 4
  br label %20

15:                                               ; preds = %1
  %16 = load ptr, ptr %4, align 8
  %17 = getelementptr inbounds nuw %struct._protocol, ptr %16, i32 0, i32 7
  %18 = load i8, ptr %17, align 2, !range !10, !noundef !11
  %19 = trunc i8 %18 to i1
  store i1 %19, ptr %2, align 1
  store i32 1, ptr %5, align 4
  br label %20

20:                                               ; preds = %15, %10
  call void @llvm.lifetime.end.p0(i64 8, ptr %4) #24
  %21 = load i1, ptr %2, align 1
  ret i1 %21
}

; Function Attrs: null_pointer_is_valid sspstrong uwtable
define zeroext i1 @proto_is_protocol_enabled(ptr noundef %0) #0 {
  %2 = alloca i1, align 1
  %3 = alloca ptr, align 8
  store ptr %0, ptr %3, align 8
  %4 = load ptr, ptr %3, align 8
  %5 = icmp eq ptr %4, null
  br i1 %5, label %6, label %7

6:                                                ; preds = %1
  store i1 false, ptr %2, align 1
  br label %21

7:                                                ; preds = %1
  %8 = load ptr, ptr %3, align 8
  %9 = call zeroext i1 @proto_is_pino(ptr noundef %8)
  br i1 %9, label %10, label %16

10:                                               ; preds = %7
  %11 = load ptr, ptr %3, align 8
  %12 = getelementptr inbounds nuw %struct._protocol, ptr %11, i32 0, i32 8
  %13 = load i32, ptr %12, align 8
  %14 = call ptr @find_protocol_by_id(i32 noundef %13)
  %15 = call zeroext i1 @proto_is_protocol_enabled(ptr noundef %14)
  store i1 %15, ptr %2, align 1
  br label %21

16:                                               ; preds = %7
  %17 = load ptr, ptr %3, align 8
  %18 = getelementptr inbounds nuw %struct._protocol, ptr %17, i32 0, i32 5
  %19 = load i8, ptr %18, align 4, !range !10, !noundef !11
  %20 = trunc i8 %19 to i1
  store i1 %20, ptr %2, align 1
  br label %21

21:                                               ; preds = %16, %10, %6
  %22 = load i1, ptr %2, align 1
  ret i1 %22
}

; Function Attrs: null_pointer_is_valid sspstrong uwtable
define zeroext i1 @proto_is_protocol_enabled_by_default(ptr noundef %0) #0 {
  %2 = alloca i1, align 1
  %3 = alloca ptr, align 8
  store ptr %0, ptr %3, align 8
  %4 = load ptr, ptr %3, align 8
  %5 = call zeroext i1 @proto_is_pino(ptr noundef %4)
  br i1 %5, label %6, label %12

6:                                                ; preds = %1
  %7 = load ptr, ptr %3, align 8
  %8 = getelementptr inbounds nuw %struct._protocol, ptr %7, i32 0, i32 8
  %9 = load i32, ptr %8, align 8
  %10 = call ptr @find_protocol_by_id(i32 noundef %9)
  %11 = call zeroext i1 @proto_is_protocol_enabled_by_default(ptr noundef %10)
  store i1 %11, ptr %2, align 1
  br label %17

12:                                               ; preds = %1
  %13 = load ptr, ptr %3, align 8
  %14 = getelementptr inbounds nuw %struct._protocol, ptr %13, i32 0, i32 6
  %15 = load i8, ptr %14, align 1, !range !10, !noundef !11
  %16 = trunc i8 %15 to i1
  store i1 %16, ptr %2, align 1
  br label %17

17:                                               ; preds = %12, %6
  %18 = load i1, ptr %2, align 1
  ret i1 %18
}

; Function Attrs: nounwind null_pointer_is_valid sspstrong uwtable
define i32 @proto_get_first_protocol(ptr noundef %0) #3 {
  %2 = alloca i32, align 4
  %3 = alloca ptr, align 8
  %4 = alloca ptr, align 8
  %5 = alloca i32, align 4
  store ptr %0, ptr %3, align 8
  call void @llvm.lifetime.start.p0(i64 8, ptr %4) #24
  %6 = load ptr, ptr @protocols, align 8
  %7 = icmp eq ptr %6, null
  br i1 %7, label %8, label %9

8:                                                ; preds = %1
  store i32 -1, ptr %2, align 4
  store i32 1, ptr %5, align 4
  br label %18

9:                                                ; preds = %1
  %10 = load ptr, ptr @protocols, align 8
  %11 = load ptr, ptr %3, align 8
  store ptr %10, ptr %11, align 8
  %12 = load ptr, ptr @protocols, align 8
  %13 = getelementptr inbounds nuw %struct._GList, ptr %12, i32 0, i32 0
  %14 = load ptr, ptr %13, align 8
  store ptr %14, ptr %4, align 8
  %15 = load ptr, ptr %4, align 8
  %16 = getelementptr inbounds nuw %struct._protocol, ptr %15, i32 0, i32 4
  %17 = load i32, ptr %16, align 8
  store i32 %17, ptr %2, align 4
  store i32 1, ptr %5, align 4
  br label %18

18:                                               ; preds = %9, %8
  call void @llvm.lifetime.end.p0(i64 8, ptr %4) #24
  %19 = load i32, ptr %2, align 4
  ret i32 %19
}

; Function Attrs: null_pointer_is_valid sspstrong uwtable
define void @proto_registrar_dump_protocols() #0 {
  %1 = alloca ptr, align 8
  %2 = alloca i32, align 4
  %3 = alloca ptr, align 8
  call void @llvm.lifetime.start.p0(i64 8, ptr %1) #24
  call void @llvm.lifetime.start.p0(i64 4, ptr %2) #24
  call void @llvm.lifetime.start.p0(i64 8, ptr %3) #24
  store ptr null, ptr %3, align 8
  %4 = call i32 @proto_get_first_protocol(ptr noundef %3)
  store i32 %4, ptr %2, align 4
  br label %5

5:                                                ; preds = %8, %0
  %6 = load i32, ptr %2, align 4
  %7 = icmp ne i32 %6, -1
  br i1 %7, label %8, label %33

8:                                                ; preds = %5
  %9 = load i32, ptr %2, align 4
  %10 = call ptr @find_protocol_by_id(i32 noundef %9)
  store ptr %10, ptr %1, align 8
  %11 = load ptr, ptr %1, align 8
  %12 = getelementptr inbounds nuw %struct._protocol, ptr %11, i32 0, i32 0
  %13 = load ptr, ptr %12, align 8
  %14 = load ptr, ptr %1, align 8
  %15 = getelementptr inbounds nuw %struct._protocol, ptr %14, i32 0, i32 1
  %16 = load ptr, ptr %15, align 8
  %17 = load ptr, ptr %1, align 8
  %18 = getelementptr inbounds nuw %struct._protocol, ptr %17, i32 0, i32 2
  %19 = load ptr, ptr %18, align 8
  %20 = load ptr, ptr %1, align 8
  %21 = call zeroext i1 @proto_is_protocol_enabled_by_default(ptr noundef %20)
  %22 = select i1 %21, i32 84, i32 70
  %23 = load ptr, ptr %1, align 8
  %24 = call zeroext i1 @proto_is_protocol_enabled(ptr noundef %23)
  %25 = select i1 %24, i32 84, i32 70
  %26 = load ptr, ptr %1, align 8
  %27 = getelementptr inbounds nuw %struct._protocol, ptr %26, i32 0, i32 4
  %28 = load i32, ptr %27, align 8
  %29 = call zeroext i1 @proto_can_toggle_protocol(i32 noundef %28)
  %30 = select i1 %29, i32 84, i32 70
  %31 = call i32 (i32, ptr, ...) @__printf_chk(i32 noundef 2, ptr noundef @.str.130, ptr noundef %13, ptr noundef %16, ptr noundef %19, i32 noundef %22, i32 noundef %25, i32 noundef %30)
  %32 = call i32 @proto_get_next_protocol(ptr noundef %3)
  store i32 %32, ptr %2, align 4
  br label %5, !llvm.loop !55

33:                                               ; preds = %5
  call void @llvm.lifetime.end.p0(i64 8, ptr %3) #24
  call void @llvm.lifetime.end.p0(i64 4, ptr %2) #24
  call void @llvm.lifetime.end.p0(i64 8, ptr %1) #24
  ret void
}