; Function Attrs: null_pointer_is_valid sspstrong uwtable
define void @proto_registrar_dump_protocols() local_unnamed_addr #0 {
  %1 = load ptr, ptr @protocols, align 8
  %2 = icmp eq ptr %1, null
  br i1 %2, label %._crit_edge, label %proto_get_first_protocol.exit

proto_get_first_protocol.exit:                    ; preds = %0
  %3 = load ptr, ptr %1, align 8
  %4 = getelementptr inbounds nuw i8, ptr %3, i64 32
  %5 = load i32, ptr %4, align 8
  %.not49 = icmp eq i32 %5, -1
  br i1 %.not49, label %._crit_edge, label %.lr.ph

.lr.ph:                                           ; preds = %proto_get_first_protocol.exit, %proto_get_next_protocol.exit
  %.051 = phi i32 [ %112, %proto_get_next_protocol.exit ], [ %5, %proto_get_first_protocol.exit ]
  %.02650 = phi ptr [ %108, %proto_get_next_protocol.exit ], [ %1, %proto_get_first_protocol.exit ]
  %6 = tail call ptr @find_protocol_by_id(i32 noundef %.051)
  %7 = load ptr, ptr %6, align 8
  %8 = getelementptr inbounds nuw i8, ptr %6, i64 8
  %9 = load ptr, ptr %8, align 8
  %10 = getelementptr inbounds nuw i8, ptr %6, i64 16
  %11 = load ptr, ptr %10, align 8
  %12 = getelementptr inbounds nuw i8, ptr %6, i64 40
  %13 = load i32, ptr %12, align 8
  %.not4.i = icmp eq i32 %13, -1
  %.pre.pre = load i32, ptr @gpa_hfinfo.0, align 8
  %.pre82.pre = load i8, ptr @wireshark_abort_on_dissector_bug, align 1, !range !10
  %.pre83.pre = load ptr, ptr @gpa_hfinfo.2, align 8
  br i1 %.not4.i, label %proto_is_protocol_enabled_by_default.exit, label %tailrecurse.i.preheader

tailrecurse.i.preheader:                          ; preds = %.lr.ph
  %14 = trunc nuw i8 %.pre82.pre to i1
  br label %tailrecurse.i

tailrecurse.i:                                    ; preds = %tailrecurse.i.preheader, %find_protocol_by_id.exit
  %15 = phi i32 [ %40, %find_protocol_by_id.exit ], [ %13, %tailrecurse.i.preheader ]
  %16 = icmp slt i32 %15, 1
  br i1 %16, label %find_protocol_by_id.exit, label %17

17:                                               ; preds = %tailrecurse.i
  %18 = icmp ugt i32 %15, %.pre.pre
  %brmerge.not = select i1 %18, i1 %14, i1 false
  br i1 %brmerge.not, label %19, label %20

19:                                               ; preds = %17
  tail call void (ptr, i32, ptr, i64, ptr, ptr, ...) @ws_log_fatal_full(ptr noundef nonnull @.str, i32 noundef 7, ptr noundef nonnull @.str.1, i64 noundef 8489, ptr noundef nonnull @__func__.find_protocol_by_id, ptr noundef nonnull @.str.2, i32 noundef %15) #37
  unreachable

20:                                               ; preds = %17
  %21 = icmp ult i32 %15, %.pre.pre
  br i1 %21, label %23, label %22

22:                                               ; preds = %20
  tail call void (ptr, ...) @proto_report_dissector_bug(ptr noundef nonnull @.str.3, ptr noundef nonnull @.str.1, i32 noundef 8489, ptr noundef nonnull @.str.4, ptr noundef nonnull @.str.5) #37
  unreachable

23:                                               ; preds = %20
  %24 = zext nneg i32 %15 to i64
  %25 = getelementptr ptr, ptr %.pre83.pre, i64 %24
  %26 = load ptr, ptr %25, align 8
  %.not.i14 = icmp eq ptr %26, null
  br i1 %.not.i14, label %27, label %28

27:                                               ; preds = %23
  tail call void (ptr, ...) @proto_report_dissector_bug(ptr noundef nonnull @.str.3, ptr noundef nonnull @.str.1, i32 noundef 8489, ptr noundef nonnull @.str.6, ptr noundef nonnull @.str.5) #37
  unreachable

28:                                               ; preds = %23
  %29 = getelementptr inbounds nuw i8, ptr %26, i64 16
  %30 = load i32, ptr %29, align 8
  %.not13.i = icmp eq i32 %30, 1
  br i1 %.not13.i, label %36, label %31

31:                                               ; preds = %28
  %32 = getelementptr inbounds nuw i8, ptr %26, i64 20
  %33 = load i32, ptr %32, align 4
  %34 = and i32 %33, 16384
  %.not14.i = icmp eq i32 %34, 0
  br i1 %.not14.i, label %35, label %36

35:                                               ; preds = %31
  tail call void (ptr, ...) @proto_report_dissector_bug(ptr noundef nonnull @.str.62, ptr noundef nonnull @.str.1, i32 noundef 8491, ptr noundef nonnull @.str.103) #37
  unreachable

36:                                               ; preds = %31, %28
  %37 = getelementptr inbounds nuw i8, ptr %26, i64 24
  %38 = load ptr, ptr %37, align 8
  br label %find_protocol_by_id.exit

find_protocol_by_id.exit:                         ; preds = %tailrecurse.i, %36
  %.0.i15 = phi ptr [ %38, %36 ], [ null, %tailrecurse.i ]
  %39 = getelementptr inbounds nuw i8, ptr %.0.i15, i64 40
  %40 = load i32, ptr %39, align 8
  %.not.i = icmp eq i32 %40, -1
  br i1 %.not.i, label %proto_is_protocol_enabled_by_default.exit, label %tailrecurse.i

proto_is_protocol_enabled_by_default.exit:        ; preds = %find_protocol_by_id.exit, %.lr.ph
  %.tr.lcssa.i = phi ptr [ %6, %.lr.ph ], [ %.0.i15, %find_protocol_by_id.exit ]
  %41 = getelementptr inbounds nuw i8, ptr %.tr.lcssa.i, i64 37
  %42 = load i8, ptr %41, align 1, !range !10, !noundef !11
  %43 = trunc nuw i8 %42 to i1
  %44 = select i1 %43, i32 84, i32 70
  %45 = icmp eq ptr %6, null
  %.pre = trunc nuw i8 %.pre82.pre to i1
  br i1 %45, label %proto_is_protocol_enabled.exit.thread, label %.lr.ph.i

.lr.ph.i:                                         ; preds = %proto_is_protocol_enabled_by_default.exit, %find_protocol_by_id.exit20
  %.tr7.i = phi ptr [ %69, %find_protocol_by_id.exit20 ], [ %6, %proto_is_protocol_enabled_by_default.exit ]
  %46 = getelementptr inbounds nuw i8, ptr %.tr7.i, i64 40
  %47 = load i32, ptr %46, align 8
  %.not.i7 = icmp eq i32 %47, -1
  br i1 %.not.i7, label %proto_is_protocol_enabled.exit, label %tailrecurse.i8

tailrecurse.i8:                                   ; preds = %.lr.ph.i
  %48 = icmp slt i32 %47, 1
  br i1 %48, label %proto_is_protocol_enabled.exit.thread, label %49

49:                                               ; preds = %tailrecurse.i8
  %50 = icmp ugt i32 %47, %.pre.pre
  %brmerge56.not = select i1 %50, i1 %.pre, i1 false
  br i1 %brmerge56.not, label %51, label %52

51:                                               ; preds = %49
  tail call void (ptr, i32, ptr, i64, ptr, ptr, ...) @ws_log_fatal_full(ptr noundef nonnull @.str, i32 noundef 7, ptr noundef nonnull @.str.1, i64 noundef 8489, ptr noundef nonnull @__func__.find_protocol_by_id, ptr noundef nonnull @.str.2, i32 noundef %47) #37
  unreachable

52:                                               ; preds = %49
  %53 = icmp ult i32 %47, %.pre.pre
  br i1 %53, label %55, label %54

54:                                               ; preds = %52
  tail call void (ptr, ...) @proto_report_dissector_bug(ptr noundef nonnull @.str.3, ptr noundef nonnull @.str.1, i32 noundef 8489, ptr noundef nonnull @.str.4, ptr noundef nonnull @.str.5) #37
  unreachable

55:                                               ; preds = %52
  %56 = zext nneg i32 %47 to i64
  %57 = getelementptr ptr, ptr %.pre83.pre, i64 %56
  %58 = load ptr, ptr %57, align 8
  %.not.i16 = icmp eq ptr %58, null
  br i1 %.not.i16, label %59, label %60

59:                                               ; preds = %55
  tail call void (ptr, ...) @proto_report_dissector_bug(ptr noundef nonnull @.str.3, ptr noundef nonnull @.str.1, i32 noundef 8489, ptr noundef nonnull @.str.6, ptr noundef nonnull @.str.5) #37
  unreachable

60:                                               ; preds = %55
  %61 = getelementptr inbounds nuw i8, ptr %58, i64 16
  %62 = load i32, ptr %61, align 8
  %.not13.i17 = icmp eq i32 %62, 1
  br i1 %.not13.i17, label %find_protocol_by_id.exit20, label %63

63:                                               ; preds = %60
  %64 = getelementptr inbounds nuw i8, ptr %58, i64 20
  %65 = load i32, ptr %64, align 4
  %66 = and i32 %65, 16384
  %.not14.i18 = icmp eq i32 %66, 0
  br i1 %.not14.i18, label %67, label %find_protocol_by_id.exit20

67:                                               ; preds = %63
  tail call void (ptr, ...) @proto_report_dissector_bug(ptr noundef nonnull @.str.62, ptr noundef nonnull @.str.1, i32 noundef 8491, ptr noundef nonnull @.str.103) #37
  unreachable

find_protocol_by_id.exit20:                       ; preds = %60, %63
  %68 = getelementptr inbounds nuw i8, ptr %58, i64 24
  %69 = load ptr, ptr %68, align 8
  %70 = icmp eq ptr %69, null
  br i1 %70, label %proto_is_protocol_enabled.exit.thread, label %.lr.ph.i

proto_is_protocol_enabled.exit:                   ; preds = %.lr.ph.i
  %71 = getelementptr inbounds nuw i8, ptr %.tr7.i, i64 36
  %72 = load i8, ptr %71, align 4, !range !10, !noundef !11
  %73 = trunc nuw i8 %72 to i1
  %spec.select = select i1 %73, i32 84, i32 70
  br label %proto_is_protocol_enabled.exit.thread

proto_is_protocol_enabled.exit.thread:            ; preds = %tailrecurse.i8, %find_protocol_by_id.exit20, %proto_is_protocol_enabled_by_default.exit, %proto_is_protocol_enabled.exit
  %74 = phi i32 [ %spec.select, %proto_is_protocol_enabled.exit ], [ 70, %proto_is_protocol_enabled_by_default.exit ], [ 70, %find_protocol_by_id.exit20 ], [ 70, %tailrecurse.i8 ]
  %75 = getelementptr inbounds nuw i8, ptr %6, i64 32
  %76 = load i32, ptr %75, align 8
  br label %tailrecurse.i10

tailrecurse.i10:                                  ; preds = %find_protocol_by_id.exit25, %proto_is_protocol_enabled.exit.thread
  %.tr.i = phi i32 [ %76, %proto_is_protocol_enabled.exit.thread ], [ %101, %find_protocol_by_id.exit25 ]
  %77 = icmp slt i32 %.tr.i, 1
  br i1 %77, label %find_protocol_by_id.exit25, label %78

78:                                               ; preds = %tailrecurse.i10
  %79 = icmp ugt i32 %.tr.i, %.pre.pre
  %brmerge59.not = select i1 %79, i1 %.pre, i1 false
  br i1 %brmerge59.not, label %80, label %81

80:                                               ; preds = %78
  tail call void (ptr, i32, ptr, i64, ptr, ptr, ...) @ws_log_fatal_full(ptr noundef nonnull @.str, i32 noundef 7, ptr noundef nonnull @.str.1, i64 noundef 8489, ptr noundef nonnull @__func__.find_protocol_by_id, ptr noundef nonnull @.str.2, i32 noundef %.tr.i) #37
  unreachable

81:                                               ; preds = %78
  %82 = icmp ult i32 %.tr.i, %.pre.pre
  br i1 %82, label %84, label %83

83:                                               ; preds = %81
  tail call void (ptr, ...) @proto_report_dissector_bug(ptr noundef nonnull @.str.3, ptr noundef nonnull @.str.1, i32 noundef 8489, ptr noundef nonnull @.str.4, ptr noundef nonnull @.str.5) #37
  unreachable

84:                                               ; preds = %81
  %85 = zext nneg i32 %.tr.i to i64
  %86 = getelementptr ptr, ptr %.pre83.pre, i64 %85
  %87 = load ptr, ptr %86, align 8
  %.not.i21 = icmp eq ptr %87, null
  br i1 %.not.i21, label %88, label %89

88:                                               ; preds = %84
  tail call void (ptr, ...) @proto_report_dissector_bug(ptr noundef nonnull @.str.3, ptr noundef nonnull @.str.1, i32 noundef 8489, ptr noundef nonnull @.str.6, ptr noundef nonnull @.str.5) #37
  unreachable

89:                                               ; preds = %84
  %90 = getelementptr inbounds nuw i8, ptr %87, i64 16
  %91 = load i32, ptr %90, align 8
  %.not13.i22 = icmp eq i32 %91, 1
  br i1 %.not13.i22, label %97, label %92

92:                                               ; preds = %89
  %93 = getelementptr inbounds nuw i8, ptr %87, i64 20
  %94 = load i32, ptr %93, align 4
  %95 = and i32 %94, 16384
  %.not14.i23 = icmp eq i32 %95, 0
  br i1 %.not14.i23, label %96, label %97

96:                                               ; preds = %92
  tail call void (ptr, ...) @proto_report_dissector_bug(ptr noundef nonnull @.str.62, ptr noundef nonnull @.str.1, i32 noundef 8491, ptr noundef nonnull @.str.103) #37
  unreachable

97:                                               ; preds = %92, %89
  %98 = getelementptr inbounds nuw i8, ptr %87, i64 24
  %99 = load ptr, ptr %98, align 8
  br label %find_protocol_by_id.exit25

find_protocol_by_id.exit25:                       ; preds = %tailrecurse.i10, %97
  %.0.i24 = phi ptr [ %99, %97 ], [ null, %tailrecurse.i10 ]
  %100 = getelementptr inbounds nuw i8, ptr %.0.i24, i64 40
  %101 = load i32, ptr %100, align 8
  %.not.i11 = icmp eq i32 %101, -1
  br i1 %.not.i11, label %proto_can_toggle_protocol.exit, label %tailrecurse.i10

proto_can_toggle_protocol.exit:                   ; preds = %find_protocol_by_id.exit25
  %102 = getelementptr inbounds nuw i8, ptr %.0.i24, i64 38
  %103 = load i8, ptr %102, align 2, !range !10, !noundef !11
  %104 = trunc nuw i8 %103 to i1
  %105 = select i1 %104, i32 84, i32 70
  %106 = tail call i32 (i32, ptr, ...) @__printf_chk(i32 noundef 2, ptr noundef nonnull @.str.130, ptr noundef %7, ptr noundef %9, ptr noundef %11, i32 noundef %44, i32 noundef %74, i32 noundef %105)
  %107 = getelementptr inbounds nuw i8, ptr %.02650, i64 8
  %108 = load ptr, ptr %107, align 8
  %109 = icmp eq ptr %108, null
  br i1 %109, label %._crit_edge, label %proto_get_next_protocol.exit

proto_get_next_protocol.exit:                     ; preds = %proto_can_toggle_protocol.exit
  %110 = load ptr, ptr %108, align 8
  %111 = getelementptr inbounds nuw i8, ptr %110, i64 32
  %112 = load i32, ptr %111, align 8
  %.not = icmp eq i32 %112, -1
  br i1 %.not, label %._crit_edge, label %.lr.ph, !llvm.loop !62

._crit_edge:                                      ; preds = %proto_can_toggle_protocol.exit, %proto_get_next_protocol.exit, %0, %proto_get_first_protocol.exit
  ret void
}